target datalayout = "e-m:e-p270:32:32-p271:32:32-p272:64:64-i64:64-i128:128-f80:128-n8:16:32:64-S128"
target triple = "x86_64-pc-linux-gnu"

; Function Attrs: nounwind uwtable
define i32 @pmix_argv_delete(ptr noundef %0, ptr noundef %1, i32 noundef %2, i32 noundef %3) #0 {
  %5 = alloca i32, align 4
  %6 = alloca ptr, align 8
  %7 = alloca ptr, align 8
  %8 = alloca i32, align 4
  %9 = alloca i32, align 4
  %10 = alloca i32, align 4
  %11 = alloca i32, align 4
  %12 = alloca i32, align 4
  %13 = alloca ptr, align 8
  %14 = alloca i32, align 4
  store ptr %0, ptr %6, align 8, !tbaa !3
  store ptr %1, ptr %7, align 8, !tbaa !8
  store i32 %2, ptr %8, align 4, !tbaa !12
  store i32 %3, ptr %9, align 4, !tbaa !12
  call void @llvm.lifetime.start.p0(i64 4, ptr %10) #7
  call void @llvm.lifetime.start.p0(i64 4, ptr %11) #7
  call void @llvm.lifetime.start.p0(i64 4, ptr %12) #7
  call void @llvm.lifetime.start.p0(i64 8, ptr %13) #7
  %15 = load ptr, ptr %7, align 8, !tbaa !8
  %16 = icmp eq ptr null, %15
  br i1 %16, label %24, label %17

17:                                               ; preds = %4
  %18 = load ptr, ptr %7, align 8, !tbaa !8
  %19 = load ptr, ptr %18, align 8, !tbaa !14
  %20 = icmp eq ptr null, %19
  br i1 %20, label %24, label %21

21:                                               ; preds = %17
  %22 = load i32, ptr %9, align 4, !tbaa !12
  %23 = icmp eq i32 0, %22
  br i1 %23, label %24, label %25

24:                                               ; preds = %21, %17, %4
  store i32 0, ptr %5, align 4
  store i32 1, ptr %14, align 4
  br label %122

25:                                               ; preds = %21
  %26 = load ptr, ptr %7, align 8, !tbaa !8
  %27 = load ptr, ptr %26, align 8, !tbaa !14
  %28 = call i32 @PMIx_Argv_count(ptr noundef %27)
  store i32 %28, ptr %11, align 4, !tbaa !12
  %29 = load i32, ptr %8, align 4, !tbaa !12
  %30 = load i32, ptr %11, align 4, !tbaa !12
  %31 = icmp sgt i32 %29, %30
  br i1 %31, label %32, label %33

32:                                               ; preds = %25
  store i32 0, ptr %5, align 4
  store i32 1, ptr %14, align 4
  br label %122

33:                                               ; preds = %25
  %34 = load i32, ptr %8, align 4, !tbaa !12
  %35 = icmp slt i32 %34, 0
  br i1 %35, label %39, label %36

36:                                               ; preds = %33
  %37 = load i32, ptr %9, align 4, !tbaa !12
  %38 = icmp slt i32 %37, 0
  br i1 %38, label %39, label %40

39:                                               ; preds = %36, %33
  store i32 -27, ptr %5, align 4
  store i32 1, ptr %14, align 4
  br label %122

40:                                               ; preds = %36
  br label %41

41:                                               ; preds = %40
  %42 = load i32, ptr %11, align 4, !tbaa !12
  %43 = load i32, ptr %8, align 4, !tbaa !12
  %44 = load i32, ptr %9, align 4, !tbaa !12
  %45 = add nsw i32 %43, %44
  %46 = sub nsw i32 %42, %45
  store i32 %46, ptr %12, align 4, !tbaa !12
  %47 = load i32, ptr %12, align 4, !tbaa !12
  %48 = icmp slt i32 %47, 0
  br i1 %48, label %49, label %50

49:                                               ; preds = %41
  store i32 0, ptr %12, align 4, !tbaa !12
  br label %50

50:                                               ; preds = %49, %41
  %51 = load i32, ptr %8, align 4, !tbaa !12
  store i32 %51, ptr %10, align 4, !tbaa !12
  br label %52

52:                                               ; preds = %71, %50
  %53 = load i32, ptr %10, align 4, !tbaa !12
  %54 = load i32, ptr %11, align 4, !tbaa !12
  %55 = icmp slt i32 %53, %54
  br i1 %55, label %56, label %62

56:                                               ; preds = %52
  %57 = load i32, ptr %10, align 4, !tbaa !12
  %58 = load i32, ptr %8, align 4, !tbaa !12
  %59 = load i32, ptr %9, align 4, !tbaa !12
  %60 = add nsw i32 %58, %59
  %61 = icmp slt i32 %57, %60
  br label %62

62:                                               ; preds = %56, %52
  %63 = phi i1 [ false, %52 ], [ %61, %56 ]
  br i1 %63, label %64, label %74

64:                                               ; preds = %62
  %65 = load ptr, ptr %7, align 8, !tbaa !8
  %66 = load ptr, ptr %65, align 8, !tbaa !14
  %67 = load i32, ptr %10, align 4, !tbaa !12
  %68 = sext i32 %67 to i64
  %69 = getelementptr inbounds ptr, ptr %66, i64 %68
  %70 = load ptr, ptr %69, align 8, !tbaa !10
  call void @free(ptr noundef %70) #7
  br label %71

71:                                               ; preds = %64
  %72 = load i32, ptr %10, align 4, !tbaa !12
  %73 = add nsw i32 %72, 1
  store i32 %73, ptr %10, align 4, !tbaa !12
  br label %52, !llvm.loop !29

74:                                               ; preds = %62
  %75 = load i32, ptr %8, align 4, !tbaa !12
  store i32 %75, ptr %10, align 4, !tbaa !12
  br label %76

76:                                               ; preds = %96, %74
  %77 = load i32, ptr %10, align 4, !tbaa !12
  %78 = load i32, ptr %8, align 4, !tbaa !12
  %79 = load i32, ptr %12, align 4, !tbaa !12
  %80 = add nsw i32 %78, %79
  %81 = icmp slt i32 %77, %80
  br i1 %81, label %82, label %99

82:                                               ; preds = %76
  %83 = load ptr, ptr %7, align 8, !tbaa !8
  %84 = load ptr, ptr %83, align 8, !tbaa !14
  %85 = load i32, ptr %10, align 4, !tbaa !12
  %86 = load i32, ptr %9, align 4, !tbaa !12
  %87 = add nsw i32 %85, %86
  %88 = sext i32 %87 to i64
  %89 = getelementptr inbounds ptr, ptr %84, i64 %88
  %90 = load ptr, ptr %89, align 8, !tbaa !10
  %91 = load ptr, ptr %7, align 8, !tbaa !8
  %92 = load ptr, ptr %91, align 8, !tbaa !14
  %93 = load i32, ptr %10, align 4, !tbaa !12
  %94 = sext i32 %93 to i64
  %95 = getelementptr inbounds ptr, ptr %92, i64 %94
  store ptr %90, ptr %95, align 8, !tbaa !10
  br label %96

96:                                               ; preds = %82
  %97 = load i32, ptr %10, align 4, !tbaa !12
  %98 = add nsw i32 %97, 1
  store i32 %98, ptr %10, align 4, !tbaa !12
  br label %76, !llvm.loop !30

99:                                               ; preds = %76
  %100 = load ptr, ptr %7, align 8, !tbaa !8
  %101 = load ptr, ptr %100, align 8, !tbaa !14
  %102 = load i32, ptr %10, align 4, !tbaa !12
  %103 = sext i32 %102 to i64
  %104 = getelementptr inbounds ptr, ptr %101, i64 %103
  store ptr null, ptr %104, align 8, !tbaa !10
  %105 = load ptr, ptr %7, align 8, !tbaa !8
  %106 = load ptr, ptr %105, align 8, !tbaa !14
  %107 = load i32, ptr %10, align 4, !tbaa !12
  %108 = add nsw i32 %107, 1
  %109 = sext i32 %108 to i64
  %110 = mul i64 8, %109
  %111 = call ptr @realloc(ptr noundef %106, i64 noundef %110) #10
  store ptr %111, ptr %13, align 8, !tbaa !14
  %112 = load ptr, ptr %13, align 8, !tbaa !14
  %113 = icmp ne ptr null, %112
  br i1 %113, label %114, label %117

114:                                              ; preds = %99
  %115 = load ptr, ptr %13, align 8, !tbaa !14
  %116 = load ptr, ptr %7, align 8, !tbaa !8
  store ptr %115, ptr %116, align 8, !tbaa !14
  br label %117

117:                                              ; preds = %114, %99
  %118 = load i32, ptr %9, align 4, !tbaa !12
  %119 = load ptr, ptr %6, align 8, !tbaa !3
  %120 = load i32, ptr %119, align 4, !tbaa !12
  %121 = sub nsw i32 %120, %118
  store i32 %121, ptr %119, align 4, !tbaa !12
  store i32 0, ptr %5, align 4
  store i32 1, ptr %14, align 4
  br label %122

122:                                              ; preds = %117, %39, %32, %24
  call void @llvm.lifetime.end.p0(i64 8, ptr %13) #7
  call void @llvm.lifetime.end.p0(i64 4, ptr %12) #7
  call void @llvm.lifetime.end.p0(i64 4, ptr %11) #7
  call void @llvm.lifetime.end.p0(i64 4, ptr %10) #7
  %123 = load i32, ptr %5, align 4
  ret i32 %123
}