; Function Attrs: nounwind uwtable
define range(i32 -27, 1) i32 @pmix_argv_delete(ptr noundef captures(none) %0, ptr noundef captures(address_is_null) %1, i32 noundef %2, i32 noundef %3) local_unnamed_addr #0 {
  %5 = icmp eq ptr %1, null
  br i1 %5, label %40, label %6

6:                                                ; preds = %4
  %7 = load ptr, ptr %1, align 8, !tbaa !3
  %8 = icmp eq ptr %7, null
  %9 = icmp eq i32 %3, 0
  %or.cond = or i1 %9, %8
  br i1 %or.cond, label %40, label %10

10:                                               ; preds = %6
  %11 = tail call i32 @PMIx_Argv_count(ptr noundef nonnull %7) #10
  %12 = icmp sgt i32 %2, %11
  br i1 %12, label %40, label %13

13:                                               ; preds = %10
  %14 = or i32 %3, %2
  %or.cond3.not = icmp sgt i32 %14, -1
  br i1 %or.cond3.not, label %15, label %40

15:                                               ; preds = %13
  %16 = add i32 %3, %2
  %17 = sub nsw i32 %11, %16
  %spec.store.select = tail call i32 @llvm.smax.i32(i32 %17, i32 0)
  %invariant.smin = tail call i32 @llvm.smin.i32(i32 %11, i32 %16)
  %or.cond5051 = icmp slt i32 %2, %invariant.smin
  br i1 %or.cond5051, label %.lr.ph.preheader, label %.critedge.preheader

.lr.ph.preheader:                                 ; preds = %15
  %18 = zext i32 %2 to i64
  br label %.lr.ph

.critedge.preheader:                              ; preds = %.lr.ph, %15
  %19 = add nsw i32 %spec.store.select, %2
  %.not55 = icmp slt i32 %17, 1
  %.pre = load ptr, ptr %1, align 8, !tbaa !3
  br i1 %.not55, label %.critedge._crit_edge, label %.lr.ph54

.lr.ph54:                                         ; preds = %.critedge.preheader
  %20 = zext i32 %2 to i64
  %21 = zext i32 %3 to i64
  %invariant.gep = getelementptr inbounds nuw ptr, ptr %.pre, i64 %21
  br label %.critedge

.lr.ph:                                           ; preds = %.lr.ph.preheader, %.lr.ph
  %indvars.iv = phi i64 [ %18, %.lr.ph.preheader ], [ %indvars.iv.next, %.lr.ph ]
  %22 = load ptr, ptr %1, align 8, !tbaa !3
  %23 = getelementptr inbounds nuw ptr, ptr %22, i64 %indvars.iv
  %24 = load ptr, ptr %23, align 8, !tbaa !10
  tail call void @free(ptr noundef %24) #10
  %indvars.iv.next = add nuw nsw i64 %indvars.iv, 1
  %25 = trunc nuw i64 %indvars.iv.next to i32
  %or.cond50 = icmp sgt i32 %invariant.smin, %25
  br i1 %or.cond50, label %.lr.ph, label %.critedge.preheader, !llvm.loop !19

.critedge:                                        ; preds = %.lr.ph54, %.critedge
  %indvars.iv58 = phi i64 [ %20, %.lr.ph54 ], [ %indvars.iv.next59, %.critedge ]
  %gep = getelementptr inbounds nuw ptr, ptr %invariant.gep, i64 %indvars.iv58
  %26 = load ptr, ptr %gep, align 8, !tbaa !10
  %27 = getelementptr inbounds nuw ptr, ptr %.pre, i64 %indvars.iv58
  store ptr %26, ptr %27, align 8, !tbaa !10
  %indvars.iv.next59 = add nuw nsw i64 %indvars.iv58, 1
  %28 = trunc nuw i64 %indvars.iv.next59 to i32
  %29 = icmp sgt i32 %19, %28
  br i1 %29, label %.critedge, label %.critedge._crit_edge, !llvm.loop !20

.critedge._crit_edge:                             ; preds = %.critedge, %.critedge.preheader
  %.1.lcssa = phi i32 [ %2, %.critedge.preheader ], [ %28, %.critedge ]
  %30 = zext nneg i32 %.1.lcssa to i64
  %31 = getelementptr inbounds nuw ptr, ptr %.pre, i64 %30
  store ptr null, ptr %31, align 8, !tbaa !10
  %32 = add nuw nsw i32 %.1.lcssa, 1
  %33 = zext nneg i32 %32 to i64
  %34 = shl nuw nsw i64 %33, 3
  %35 = tail call ptr @realloc(ptr noundef %.pre, i64 noundef %34) #13
  %.not = icmp eq ptr %35, null
  br i1 %.not, label %37, label %36

36:                                               ; preds = %.critedge._crit_edge
  store ptr %35, ptr %1, align 8, !tbaa !3
  br label %37

37:                                               ; preds = %36, %.critedge._crit_edge
  %38 = load i32, ptr %0, align 4, !tbaa !8
  %39 = sub nsw i32 %38, %3
  store i32 %39, ptr %0, align 4, !tbaa !8
  br label %40

40:                                               ; preds = %13, %10, %4, %6, %37
  %.0 = phi i32 [ 0, %37 ], [ 0, %6 ], [ 0, %4 ], [ 0, %10 ], [ -27, %13 ]
  ret i32 %.0
}